EXPORTS
    _ZN13MultiConjuntoI7PersonaE5anadeERKS0_ @1
    _ZN13MultiConjuntoI7PersonaE7eliminaERKS0_ @2
    _ZN13MultiConjuntoI7PersonaE8desplazaERKi @3
    _ZN13MultiConjuntoI7PersonaEC1Ev @4
    _ZN13MultiConjuntoI7PersonaEC2Ev @5
    _ZN13MultiConjuntoIcE5anadeERKc @6
    _ZN13MultiConjuntoIcE7eliminaERKc @7
    _ZN13MultiConjuntoIcE8desplazaERKi @8
    _ZN13MultiConjuntoIcEC1Ev @9
    _ZN13MultiConjuntoIcEC2Ev @10
    _ZN13MultiConjuntoIiE5anadeERKi @11
    _ZN13MultiConjuntoIiE7eliminaERKi @12
    _ZN13MultiConjuntoIiE8desplazaERKi @13
    _ZN13MultiConjuntoIiEC1Ev @14
    _ZN13MultiConjuntoIiEC2Ev @15
    _ZN7Persona7setEdadEi @16
    _ZN7Persona9setNombreERKNSt7__cxx1112basic_stringIcSt11char_traitsIcESaIcEEE @17
    _ZN7PersonaC1ERKNSt7__cxx1112basic_stringIcSt11char_traitsIcESaIcEEEi @18
    _ZN7PersonaC2ERKNSt7__cxx1112basic_stringIcSt11char_traitsIcESaIcEEEi @19
    _ZN7PersonaD1Ev @20
    _ZN7PersonaaSERKS_ @21
    _ZNK13MultiConjuntoI7PersonaE12cardinalidadEv @22
    _ZNK13MultiConjuntoI7PersonaE7esVacioEv @23
    _ZNK13MultiConjuntoI7PersonaE9perteneceERKS0_ @24
    _ZNK13MultiConjuntoIcE12cardinalidadEv @25
    _ZNK13MultiConjuntoIcE7esVacioEv @26
    _ZNK13MultiConjuntoIcE9perteneceERKc @27
    _ZNK13MultiConjuntoIiE12cardinalidadEv @28
    _ZNK13MultiConjuntoIiE7esVacioEv @29
    _ZNK13MultiConjuntoIiE9perteneceERKi @30
    _ZNK7Persona7getEdadEv @31
    _ZNK7Persona9getNombreB5cxx11Ev @32
    _ZNK7PersonaeqERKS_ @33
    _ZNSt11char_traitsIcE7compareEPKcS2_y @34
    _ZSteqIcEN9__gnu_cxx11__enable_ifIXsrSt9__is_charIT_E7__valueEbE6__typeERKNSt7__cxx1112basic_stringIS3_St11char_traitsIS3_ESaIS3_EEESE_ @35
    _ZlsRSoRK7Persona @36
